target datalayout = "e-m:e-p270:32:32-p271:32:32-p272:64:64-i64:64-i128:128-f80:128-n8:16:32:64-S128"
target triple = "x86_64-unknown-linux-gnu"

%"struct.google::SiteFlag" = type { ptr, ptr, i64, ptr }
%"class.std::__cxx11::basic_string" = type { %"struct.std::__cxx11::basic_string<char>::_Alloc_hider", i64, %union.anon }
%"struct.std::__cxx11::basic_string<char>::_Alloc_hider" = type { ptr }
%union.anon = type { i64, [8 x i8] }
%"class.proxygen::HTTPCodec" = type { ptr }
%"class.google::LogMessageVoidify" = type { i8 }
%"class.google::LogMessage" = type { ptr, ptr, %"struct.google::LogMessageTime" }
%"struct.google::LogMessageTime" = type { %struct.tm, i64, i32, i64 }
%struct.tm = type { i32, i32, i32, i32, i32, i32, i32, i32, i32, i64, ptr }
%"class.proxygen::HTTPParallelCodec" = type <{ %"class.proxygen::HTTPCodec", i8, [7 x i8], i64, i64, ptr, i64, i64, %"class.std::__cxx11::basic_string", i32, [4 x i8] }>

@_ZN3fLI7FLAGS_vE = external global i32, align 4
@.str = private unnamed_addr constant [134 x i8] c"generated/home/dtcxzyw/WorkSpace/Projects/compilers/llvm-opt-benchmark/bench/proxygen/proxygen/proxygen/lib/http/codec/HTTP2Codec.cpp\00", align 1
@_ZZN8proxygen10HTTP2Codec19generateSettingsAckERN5folly10IOBufQueueEE8vlocal__ = internal global %"struct.google::SiteFlag" zeroinitializer, align 8
@.str.153 = private unnamed_addr constant [25 x i8] c" generating settings ack\00", align 1

; Function Attrs: mustprogress uwtable
define noundef i64 @_ZN8proxygen10HTTP2Codec29generateHeaderCallbackWrapperEmNS_5http29FrameTypeEm(ptr noundef nonnull align 8 dereferenceable(1062) %this, i64 noundef %stream, i8 noundef zeroext %type, i64 noundef %length) #4 align 2 {
entry:
  %this.addr = alloca ptr, align 8
  %stream.addr = alloca i64, align 8
  %type.addr = alloca i8, align 1
  %length.addr = alloca i64, align 8
  store ptr %this, ptr %this.addr, align 8
  store i64 %stream, ptr %stream.addr, align 8
  store i8 %type, ptr %type.addr, align 1
  store i64 %length, ptr %length.addr, align 8
  %this1 = load ptr, ptr %this.addr, align 8
  %callback_ = getelementptr inbounds %"class.proxygen::HTTPParallelCodec", ptr %this1, i32 0, i32 5
  %0 = load ptr, ptr %callback_, align 8
  %tobool = icmp ne ptr %0, null
  br i1 %tobool, label %if.then, label %if.end

if.then:                                          ; preds = %entry
  %callback_2 = getelementptr inbounds %"class.proxygen::HTTPParallelCodec", ptr %this1, i32 0, i32 5
  %1 = load ptr, ptr %callback_2, align 8
  %2 = load i64, ptr %stream.addr, align 8
  %3 = load i8, ptr %type.addr, align 1
  %4 = load i64, ptr %length.addr, align 8
  %vtable = load ptr, ptr %1, align 8
  %vfn = getelementptr inbounds ptr, ptr %vtable, i64 23
  %5 = load ptr, ptr %vfn, align 8
  call void %5(ptr noundef nonnull align 8 dereferenceable(8) %1, i64 noundef %2, i8 noundef zeroext %3, i64 noundef %4, i16 noundef zeroext 0)
  br label %if.end

if.end:                                           ; preds = %if.then, %entry
  %6 = load i64, ptr %length.addr, align 8
  ret i64 %6
}

; Function Attrs: mustprogress nounwind uwtable
define linkonce_odr void @_ZN6google17LogMessageVoidifyanERSo(ptr noundef nonnull align 1 dereferenceable(1) %this, ptr noundef nonnull align 8 dereferenceable(8) %0) #5 comdat align 2 {
entry:
  %this.addr = alloca ptr, align 8
  %.addr = alloca ptr, align 8
  store ptr %this, ptr %this.addr, align 8
  store ptr %0, ptr %.addr, align 8
  ret void
}

; Function Attrs: mustprogress nounwind uwtable
define linkonce_odr void @_ZN6google17LogMessageVoidifyC2Ev(ptr noundef nonnull align 1 dereferenceable(1) %this) unnamed_addr #5 comdat align 2 {
entry:
  %this.addr = alloca ptr, align 8
  store ptr %this, ptr %this.addr, align 8
  ret void
}

; Function Attrs: mustprogress uwtable
define noundef i64 @_ZN8proxygen10HTTP2Codec19generateSettingsAckERN5folly10IOBufQueueE(ptr noundef nonnull align 8 dereferenceable(1062) %this, ptr noundef nonnull align 8 dereferenceable(72) %writeBuf) unnamed_addr #4 align 2 personality ptr @__gxx_personality_v0 {
entry:
  %this.addr = alloca ptr, align 8
  %writeBuf.addr = alloca ptr, align 8
  %verbose_level__ = alloca i32, align 4
  %tmp = alloca i8, align 1
  %ref.tmp = alloca %"class.google::LogMessageVoidify", align 1
  %ref.tmp5 = alloca %"class.google::LogMessage", align 8
  %cleanup.cond = alloca i1, align 1
  %exn.slot = alloca ptr, align 8
  %ehselector.slot = alloca i32, align 4
  store ptr %this, ptr %this.addr, align 8
  store ptr %writeBuf, ptr %writeBuf.addr, align 8
  %this1 = load ptr, ptr %this.addr, align 8
  store i32 4, ptr %verbose_level__, align 4
  %0 = load ptr, ptr @_ZZN8proxygen10HTTP2Codec19generateSettingsAckERN5folly10IOBufQueueEE8vlocal__, align 8
  %cmp = icmp eq ptr %0, null
  store i1 false, ptr %cleanup.cond, align 1
  br i1 %cmp, label %cond.true, label %cond.false

cond.true:                                        ; preds = %entry
  %1 = load i32, ptr %verbose_level__, align 4
  %call = call noundef zeroext i1 @_ZN6google11InitVLOG3__EPNS_8SiteFlagEPiPKci(ptr noundef @_ZZN8proxygen10HTTP2Codec19generateSettingsAckERN5folly10IOBufQueueEE8vlocal__, ptr noundef @_ZN3fLI7FLAGS_vE, ptr noundef @.str, i32 noundef %1)
  br label %cond.end

cond.false:                                       ; preds = %entry
  %2 = load ptr, ptr @_ZZN8proxygen10HTTP2Codec19generateSettingsAckERN5folly10IOBufQueueEE8vlocal__, align 8
  %3 = load i32, ptr %2, align 4
  %4 = load i32, ptr %verbose_level__, align 4
  %cmp2 = icmp sge i32 %3, %4
  br label %cond.end

cond.end:                                         ; preds = %cond.false, %cond.true
  %cond = phi i1 [ %call, %cond.true ], [ %cmp2, %cond.false ]
  %frombool = zext i1 %cond to i8
  store i8 %frombool, ptr %tmp, align 1
  %5 = load i8, ptr %tmp, align 1
  %tobool = trunc i8 %5 to i1
  br i1 %tobool, label %cond.false4, label %cond.true3

cond.true3:                                       ; preds = %cond.end
  br label %cond.end16

cond.false4:                                      ; preds = %cond.end
  call void @_ZN6google17LogMessageVoidifyC2Ev(ptr noundef nonnull align 1 dereferenceable(1) %ref.tmp)
  call void @_ZN6google10LogMessageC1EPKci(ptr noundef nonnull align 8 dereferenceable(96) %ref.tmp5, ptr noundef @.str, i32 noundef 1719)
  store i1 true, ptr %cleanup.cond, align 1
  %call6 = invoke noundef nonnull align 8 dereferenceable(8) ptr @_ZN6google10LogMessage6streamEv(ptr noundef nonnull align 8 dereferenceable(96) %ref.tmp5)
          to label %invoke.cont unwind label %lpad

invoke.cont:                                      ; preds = %cond.false4
  %vtable = load ptr, ptr %this1, align 8
  %vfn = getelementptr inbounds ptr, ptr %vtable, i64 5
  %6 = load ptr, ptr %vfn, align 8
  %call8 = invoke noundef zeroext i8 %6(ptr noundef nonnull align 8 dereferenceable(92) %this1)
          to label %invoke.cont7 unwind label %lpad

invoke.cont7:                                     ; preds = %invoke.cont
  %call10 = invoke noundef ptr @_ZN8proxygen27getTransportDirectionStringENS_18TransportDirectionE(i8 noundef zeroext %call8)
          to label %invoke.cont9 unwind label %lpad

invoke.cont9:                                     ; preds = %invoke.cont7
  %call12 = invoke noundef nonnull align 8 dereferenceable(8) ptr @_ZStlsISt11char_traitsIcEERSt13basic_ostreamIcT_ES5_PKc(ptr noundef nonnull align 8 dereferenceable(8) %call6, ptr noundef %call10)
          to label %invoke.cont11 unwind label %lpad

invoke.cont11:                                    ; preds = %invoke.cont9
  %call14 = invoke noundef nonnull align 8 dereferenceable(8) ptr @_ZStlsISt11char_traitsIcEERSt13basic_ostreamIcT_ES5_PKc(ptr noundef nonnull align 8 dereferenceable(8) %call12, ptr noundef @.str.153)
          to label %invoke.cont13 unwind label %lpad

invoke.cont13:                                    ; preds = %invoke.cont11
  invoke void @_ZN6google17LogMessageVoidifyanERSo(ptr noundef nonnull align 1 dereferenceable(1) %ref.tmp, ptr noundef nonnull align 8 dereferenceable(8) %call14)
          to label %invoke.cont15 unwind label %lpad

invoke.cont15:                                    ; preds = %invoke.cont13
  br label %cond.end16

cond.end16:                                       ; preds = %invoke.cont15, %cond.true3
  %cleanup.is_active = load i1, ptr %cleanup.cond, align 1
  br i1 %cleanup.is_active, label %cleanup.action, label %cleanup.done

cleanup.action:                                   ; preds = %cond.end16
  call void @_ZN6google10LogMessageD1Ev(ptr noundef nonnull align 8 dereferenceable(96) %ref.tmp5) #3
  br label %cleanup.done

cleanup.done:                                     ; preds = %cleanup.action, %cond.end16
  %7 = load ptr, ptr %writeBuf.addr, align 8
  %call20 = call noundef i64 @_ZN8proxygen5http216writeSettingsAckERN5folly10IOBufQueueE(ptr noundef nonnull align 8 dereferenceable(72) %7)
  %call21 = call noundef i64 @_ZN8proxygen10HTTP2Codec29generateHeaderCallbackWrapperEmNS_5http29FrameTypeEm(ptr noundef nonnull align 8 dereferenceable(1062) %this1, i64 noundef 0, i8 noundef zeroext 4, i64 noundef %call20)
  ret i64 %call21

lpad:                                             ; preds = %invoke.cont13, %invoke.cont11, %invoke.cont9, %invoke.cont7, %invoke.cont, %cond.false4
  %8 = landingpad { ptr, i32 }
          cleanup
  %9 = extractvalue { ptr, i32 } %8, 0
  store ptr %9, ptr %exn.slot, align 8
  %10 = extractvalue { ptr, i32 } %8, 1
  store i32 %10, ptr %ehselector.slot, align 4
  %cleanup.is_active17 = load i1, ptr %cleanup.cond, align 1
  br i1 %cleanup.is_active17, label %cleanup.action18, label %cleanup.done19

cleanup.action18:                                 ; preds = %lpad
  call void @_ZN6google10LogMessageD1Ev(ptr noundef nonnull align 8 dereferenceable(96) %ref.tmp5) #3
  br label %cleanup.done19

cleanup.done19:                                   ; preds = %cleanup.action18, %lpad
  br label %eh.resume

eh.resume:                                        ; preds = %cleanup.done19
  %exn = load ptr, ptr %exn.slot, align 8
  %sel = load i32, ptr %ehselector.slot, align 4
  %lpad.val = insertvalue { ptr, i32 } poison, ptr %exn, 0
  %lpad.val22 = insertvalue { ptr, i32 } %lpad.val, i32 %sel, 1
  resume { ptr, i32 } %lpad.val22
}